target datalayout = "e-m:e-p270:32:32-p271:32:32-p272:64:64-i64:64-i128:128-f80:128-n8:16:32:64-S128"
target triple = "x86_64-pc-linux-gnu"

%struct.UriTextRangeStructW = type { ptr, ptr }
%struct.UriUriStructW = type { %struct.UriTextRangeStructW, %struct.UriTextRangeStructW, %struct.UriTextRangeStructW, %struct.UriHostDataStructW, %struct.UriTextRangeStructW, ptr, ptr, %struct.UriTextRangeStructW, %struct.UriTextRangeStructW, i32, i32, ptr }
%struct.UriHostDataStructW = type { ptr, ptr, %struct.UriTextRangeStructW }

; Function Attrs: nounwind uwtable
define i32 @uriIsHostSetW(ptr noundef %0) #0 {
  %2 = alloca ptr, align 8
  store ptr %0, ptr %2, align 8, !tbaa !51
  %3 = load ptr, ptr %2, align 8, !tbaa !51
  %4 = icmp ne ptr %3, null
  br i1 %4, label %5, label %32

5:                                                ; preds = %1
  %6 = load ptr, ptr %2, align 8, !tbaa !51
  %7 = getelementptr inbounds nuw %struct.UriUriStructW, ptr %6, i32 0, i32 2
  %8 = getelementptr inbounds nuw %struct.UriTextRangeStructW, ptr %7, i32 0, i32 0
  %9 = load ptr, ptr %8, align 8, !tbaa !74
  %10 = icmp ne ptr %9, null
  br i1 %10, label %30, label %11

11:                                               ; preds = %5
  %12 = load ptr, ptr %2, align 8, !tbaa !51
  %13 = getelementptr inbounds nuw %struct.UriUriStructW, ptr %12, i32 0, i32 3
  %14 = getelementptr inbounds nuw %struct.UriHostDataStructW, ptr %13, i32 0, i32 0
  %15 = load ptr, ptr %14, align 8, !tbaa !75
  %16 = icmp ne ptr %15, null
  br i1 %16, label %30, label %17

17:                                               ; preds = %11
  %18 = load ptr, ptr %2, align 8, !tbaa !51
  %19 = getelementptr inbounds nuw %struct.UriUriStructW, ptr %18, i32 0, i32 3
  %20 = getelementptr inbounds nuw %struct.UriHostDataStructW, ptr %19, i32 0, i32 1
  %21 = load ptr, ptr %20, align 8, !tbaa !76
  %22 = icmp ne ptr %21, null
  br i1 %22, label %30, label %23

23:                                               ; preds = %17
  %24 = load ptr, ptr %2, align 8, !tbaa !51
  %25 = getelementptr inbounds nuw %struct.UriUriStructW, ptr %24, i32 0, i32 3
  %26 = getelementptr inbounds nuw %struct.UriHostDataStructW, ptr %25, i32 0, i32 2
  %27 = getelementptr inbounds nuw %struct.UriTextRangeStructW, ptr %26, i32 0, i32 0
  %28 = load ptr, ptr %27, align 8, !tbaa !77
  %29 = icmp ne ptr %28, null
  br label %30

30:                                               ; preds = %23, %17, %11, %5
  %31 = phi i1 [ true, %17 ], [ true, %11 ], [ true, %5 ], [ %29, %23 ]
  br label %32

32:                                               ; preds = %30, %1
  %33 = phi i1 [ false, %1 ], [ %31, %30 ]
  %34 = zext i1 %33 to i32
  ret i32 %34
}