; Function Attrs: mustprogress nofree norecurse nosync nounwind willreturn memory(argmem: read) uwtable
define range(i32 0, 2) i32 @uriIsHostSetW(ptr noundef readonly captures(address_is_null) %0) local_unnamed_addr #5 {
  %.not = icmp eq ptr %0, null
  br i1 %.not, label %16, label %2

2:                                                ; preds = %1
  %3 = getelementptr inbounds nuw i8, ptr %0, i64 32
  %4 = load ptr, ptr %3, align 8, !tbaa !57
  %.not5 = icmp eq ptr %4, null
  br i1 %.not5, label %5, label %16

5:                                                ; preds = %2
  %6 = getelementptr inbounds nuw i8, ptr %0, i64 48
  %7 = load ptr, ptr %6, align 8, !tbaa !58
  %.not6 = icmp eq ptr %7, null
  br i1 %.not6, label %8, label %16

8:                                                ; preds = %5
  %9 = getelementptr inbounds nuw i8, ptr %0, i64 56
  %10 = load ptr, ptr %9, align 8, !tbaa !59
  %.not7 = icmp eq ptr %10, null
  br i1 %.not7, label %11, label %16

11:                                               ; preds = %8
  %12 = getelementptr inbounds nuw i8, ptr %0, i64 64
  %13 = load ptr, ptr %12, align 8, !tbaa !60
  %14 = icmp ne ptr %13, null
  %15 = zext i1 %14 to i32
  br label %16

16:                                               ; preds = %2, %5, %8, %11, %1
  %17 = phi i32 [ 0, %1 ], [ 1, %8 ], [ 1, %5 ], [ 1, %2 ], [ %15, %11 ]
  ret i32 %17
}